target datalayout = "e-m:e-p270:32:32-p271:32:32-p272:64:64-i64:64-i128:128-f80:128-n8:16:32:64-S128"
target triple = "x86_64-pc-linux-gnu"

%"class.draco::AttributeOctahedronTransform" = type <{ %"class.draco::AttributeTransform", i32, [4 x i8] }>
%"class.draco::AttributeTransform" = type { ptr }
%"struct.draco::DataBufferDescriptor" = type { i64, i64 }
%"class.draco::AttributeTransformData" = type { i32, %"class.draco::DataBuffer" }
%"class.draco::DataBuffer" = type { %"class.std::vector.10", %"struct.draco::DataBufferDescriptor" }
%"class.std::vector.10" = type { %"struct.std::_Vector_base.11" }
%"struct.std::_Vector_base.11" = type { %"struct.std::_Vector_base<unsigned char, std::allocator<unsigned char>>::_Vector_impl" }
%"struct.std::_Vector_base<unsigned char, std::allocator<unsigned char>>::_Vector_impl" = type { %"struct.std::_Vector_base<unsigned char, std::allocator<unsigned char>>::_Vector_impl_data" }
%"struct.std::_Vector_base<unsigned char, std::allocator<unsigned char>>::_Vector_impl_data" = type { ptr, ptr, ptr }

; Function Attrs: mustprogress nounwind uwtable
define linkonce_odr noundef ptr @_ZNKSt6vectorIhSaIhEE11_M_data_ptrIhEEPT_S4_(ptr noundef nonnull align 8 dereferenceable(24) %0, ptr noundef %1) #6 comdat align 2 {
  %3 = alloca ptr, align 8
  %4 = alloca ptr, align 8
  store ptr %0, ptr %3, align 8, !tbaa !122
  store ptr %1, ptr %4, align 8, !tbaa !62
  %5 = load ptr, ptr %4, align 8, !tbaa !62
  ret ptr %5
}

; Function Attrs: mustprogress nounwind uwtable
define linkonce_odr noundef ptr @_ZNSt6vectorIhSaIhEE4dataEv(ptr noundef nonnull align 8 dereferenceable(24) %0) #6 comdat align 2 {
  %2 = alloca ptr, align 8
  store ptr %0, ptr %2, align 8, !tbaa !122
  %3 = load ptr, ptr %2, align 8
  %4 = getelementptr inbounds nuw %"struct.std::_Vector_base.11", ptr %3, i32 0, i32 0
  %5 = getelementptr inbounds nuw %"struct.std::_Vector_base<unsigned char, std::allocator<unsigned char>>::_Vector_impl_data", ptr %4, i32 0, i32 0
  %6 = load ptr, ptr %5, align 8, !tbaa !124
  %7 = call noundef ptr @_ZNKSt6vectorIhSaIhEE11_M_data_ptrIhEEPT_S4_(ptr noundef nonnull align 8 dereferenceable(24) %3, ptr noundef %6) #3
  ret ptr %7
}

; Function Attrs: mustprogress nounwind uwtable
define linkonce_odr noundef ptr @_ZN5draco10DataBuffer4dataEv(ptr noundef nonnull align 8 dereferenceable(40) %0) #6 comdat align 2 {
  %2 = alloca ptr, align 8
  store ptr %0, ptr %2, align 8, !tbaa !121
  %3 = load ptr, ptr %2, align 8
  %4 = getelementptr inbounds nuw %"class.draco::DataBuffer", ptr %3, i32 0, i32 0
  %5 = call noundef ptr @_ZNSt6vectorIhSaIhEE4dataEv(ptr noundef nonnull align 8 dereferenceable(24) %4) #3
  ret ptr %5
}

; Function Attrs: mustprogress nounwind uwtable
define linkonce_odr void @_ZN5draco10DataBuffer5WriteElPKvm(ptr noundef nonnull align 8 dereferenceable(40) %0, i64 noundef %1, ptr noundef %2, i64 noundef %3) #6 comdat align 2 {
  %5 = alloca ptr, align 8
  %6 = alloca i64, align 8
  %7 = alloca ptr, align 8
  %8 = alloca i64, align 8
  store ptr %0, ptr %5, align 8, !tbaa !121
  store i64 %1, ptr %6, align 8, !tbaa !68
  store ptr %2, ptr %7, align 8, !tbaa !100
  store i64 %3, ptr %8, align 8, !tbaa !68
  %9 = load ptr, ptr %5, align 8
  %10 = call noundef ptr @_ZN5draco10DataBuffer4dataEv(ptr noundef nonnull align 8 dereferenceable(40) %9)
  %11 = load i64, ptr %6, align 8, !tbaa !68
  %12 = getelementptr inbounds i8, ptr %10, i64 %11
  %13 = load ptr, ptr %7, align 8, !tbaa !100
  %14 = load i64, ptr %8, align 8, !tbaa !68
  call void @llvm.memcpy.p0.p0.i64(ptr align 1 %12, ptr align 1 %13, i64 %14, i1 false)
  ret void
}

; Function Attrs: mustprogress nounwind uwtable
define linkonce_odr noundef i64 @_ZNKSt6vectorIhSaIhEE4sizeEv(ptr noundef nonnull align 8 dereferenceable(24) %0) #6 comdat align 2 {
  %2 = alloca ptr, align 8
  store ptr %0, ptr %2, align 8, !tbaa !122
  %3 = load ptr, ptr %2, align 8
  %4 = getelementptr inbounds nuw %"struct.std::_Vector_base.11", ptr %3, i32 0, i32 0
  %5 = getelementptr inbounds nuw %"struct.std::_Vector_base<unsigned char, std::allocator<unsigned char>>::_Vector_impl_data", ptr %4, i32 0, i32 1
  %6 = load ptr, ptr %5, align 8, !tbaa !130
  %7 = getelementptr inbounds nuw %"struct.std::_Vector_base.11", ptr %3, i32 0, i32 0
  %8 = getelementptr inbounds nuw %"struct.std::_Vector_base<unsigned char, std::allocator<unsigned char>>::_Vector_impl_data", ptr %7, i32 0, i32 0
  %9 = load ptr, ptr %8, align 8, !tbaa !124
  %10 = ptrtoint ptr %6 to i64
  %11 = ptrtoint ptr %9 to i64
  %12 = sub i64 %10, %11
  ret i64 %12
}

; Function Attrs: mustprogress uwtable
define linkonce_odr void @_ZN5draco22AttributeTransformData17SetParameterValueIiEEviRKT_(ptr noundef nonnull align 8 dereferenceable(48) %0, i32 noundef %1, ptr noundef nonnull align 4 dereferenceable(4) %2) #4 comdat align 2 {
  %4 = alloca ptr, align 8
  %5 = alloca i32, align 4
  %6 = alloca ptr, align 8
  store ptr %0, ptr %4, align 8, !tbaa !10
  store i32 %1, ptr %5, align 4, !tbaa !27
  store ptr %2, ptr %6, align 8, !tbaa !29
  %7 = load ptr, ptr %4, align 8
  %8 = load i32, ptr %5, align 4, !tbaa !27
  %9 = sext i32 %8 to i64
  %10 = add i64 %9, 4
  %11 = getelementptr inbounds nuw %"class.draco::AttributeTransformData", ptr %7, i32 0, i32 1
  %12 = call noundef i64 @_ZNK5draco10DataBuffer9data_sizeEv(ptr noundef nonnull align 8 dereferenceable(40) %11)
  %13 = icmp ugt i64 %10, %12
  br i1 %13, label %14, label %19

14:                                               ; preds = %3
  %15 = getelementptr inbounds nuw %"class.draco::AttributeTransformData", ptr %7, i32 0, i32 1
  %16 = load i32, ptr %5, align 4, !tbaa !27
  %17 = sext i32 %16 to i64
  %18 = add i64 %17, 4
  call void @_ZN5draco10DataBuffer6ResizeEl(ptr noundef nonnull align 8 dereferenceable(40) %15, i64 noundef %18)
  br label %19

19:                                               ; preds = %14, %3
  %20 = getelementptr inbounds nuw %"class.draco::AttributeTransformData", ptr %7, i32 0, i32 1
  %21 = load i32, ptr %5, align 4, !tbaa !27
  %22 = sext i32 %21 to i64
  %23 = load ptr, ptr %6, align 8, !tbaa !29
  call void @_ZN5draco10DataBuffer5WriteElPKvm(ptr noundef nonnull align 8 dereferenceable(40) %20, i64 noundef %22, ptr noundef %23, i64 noundef 4)
  ret void
}

; Function Attrs: mustprogress nounwind uwtable
define linkonce_odr noundef i64 @_ZNK5draco10DataBuffer9data_sizeEv(ptr noundef nonnull align 8 dereferenceable(40) %0) #6 comdat align 2 {
  %2 = alloca ptr, align 8
  store ptr %0, ptr %2, align 8, !tbaa !121
  %3 = load ptr, ptr %2, align 8
  %4 = getelementptr inbounds nuw %"class.draco::DataBuffer", ptr %3, i32 0, i32 0
  %5 = call noundef i64 @_ZNKSt6vectorIhSaIhEE4sizeEv(ptr noundef nonnull align 8 dereferenceable(24) %4) #3
  ret i64 %5
}

; Function Attrs: mustprogress uwtable
define linkonce_odr void @_ZN5draco22AttributeTransformData20AppendParameterValueIiEEvRKT_(ptr noundef nonnull align 8 dereferenceable(48) %0, ptr noundef nonnull align 4 dereferenceable(4) %1) #4 comdat align 2 {
  %3 = alloca ptr, align 8
  %4 = alloca ptr, align 8
  store ptr %0, ptr %3, align 8, !tbaa !10
  store ptr %1, ptr %4, align 8, !tbaa !29
  %5 = load ptr, ptr %3, align 8
  %6 = getelementptr inbounds nuw %"class.draco::AttributeTransformData", ptr %5, i32 0, i32 1
  %7 = call noundef i64 @_ZNK5draco10DataBuffer9data_sizeEv(ptr noundef nonnull align 8 dereferenceable(40) %6)
  %8 = trunc i64 %7 to i32
  %9 = load ptr, ptr %4, align 8, !tbaa !29
  call void @_ZN5draco22AttributeTransformData17SetParameterValueIiEEviRKT_(ptr noundef nonnull align 8 dereferenceable(48) %5, i32 noundef %8, ptr noundef nonnull align 4 dereferenceable(4) %9)
  ret void
}

; Function Attrs: mustprogress nounwind uwtable
define linkonce_odr void @_ZN5draco22AttributeTransformData18set_transform_typeENS_22AttributeTransformTypeE(ptr noundef nonnull align 8 dereferenceable(48) %0, i32 noundef %1) #6 comdat align 2 {
  %3 = alloca ptr, align 8
  %4 = alloca i32, align 4
  store ptr %0, ptr %3, align 8, !tbaa !10
  store i32 %1, ptr %4, align 4, !tbaa !28
  %5 = load ptr, ptr %3, align 8
  %6 = load i32, ptr %4, align 4, !tbaa !28
  %7 = getelementptr inbounds nuw %"class.draco::AttributeTransformData", ptr %5, i32 0, i32 0
  store i32 %6, ptr %7, align 8, !tbaa !16
  ret void
}

; Function Attrs: mustprogress uwtable
define void @_ZNK5draco28AttributeOctahedronTransform28CopyToAttributeTransformDataEPNS_22AttributeTransformDataE(ptr noundef nonnull align 8 dereferenceable(12) %0, ptr noundef %1) unnamed_addr #4 align 2 {
  %3 = alloca ptr, align 8
  %4 = alloca ptr, align 8
  store ptr %0, ptr %3, align 8, !tbaa !3
  store ptr %1, ptr %4, align 8, !tbaa !10
  %5 = load ptr, ptr %3, align 8
  %6 = load ptr, ptr %4, align 8, !tbaa !10
  call void @_ZN5draco22AttributeTransformData18set_transform_typeENS_22AttributeTransformTypeE(ptr noundef nonnull align 8 dereferenceable(48) %6, i32 noundef 2)
  %7 = load ptr, ptr %4, align 8, !tbaa !10
  %8 = getelementptr inbounds nuw %"class.draco::AttributeOctahedronTransform", ptr %5, i32 0, i32 1
  call void @_ZN5draco22AttributeTransformData20AppendParameterValueIiEEvRKT_(ptr noundef nonnull align 8 dereferenceable(48) %7, ptr noundef nonnull align 4 dereferenceable(4) %8)
  ret void
}