; Function Attrs: mustprogress uwtable
define void @_ZNK5draco28AttributeOctahedronTransform28CopyToAttributeTransformDataEPNS_22AttributeTransformDataE(ptr noundef nonnull readonly align 8 captures(none) dereferenceable(12) %0, ptr noundef initializes((0, 4)) %1) unnamed_addr #5 align 2 {
  store i32 2, ptr %1, align 8, !tbaa !8
  %3 = getelementptr inbounds nuw i8, ptr %1, i64 8
  %4 = getelementptr inbounds nuw i8, ptr %1, i64 16
  %5 = load ptr, ptr %4, align 8, !tbaa !24
  %6 = load ptr, ptr %3, align 8, !tbaa !19
  %7 = ptrtoint ptr %5 to i64
  %8 = ptrtoint ptr %6 to i64
  %9 = sub i64 %7, %8
  %sext.i = shl i64 %9, 32
  %10 = ashr exact i64 %sext.i, 32
  %11 = add nsw i64 %10, 4
  %12 = icmp ugt i64 %11, %9
  br i1 %12, label %13, label %_ZN5draco22AttributeTransformData20AppendParameterValueIiEEvRKT_.exit

13:                                               ; preds = %2
  tail call void @_ZN5draco10DataBuffer6ResizeEl(ptr noundef nonnull align 8 dereferenceable(40) %3, i64 noundef %11)
  %.pre.i.i = load ptr, ptr %3, align 8, !tbaa !19
  br label %_ZN5draco22AttributeTransformData20AppendParameterValueIiEEvRKT_.exit

_ZN5draco22AttributeTransformData20AppendParameterValueIiEEvRKT_.exit: ; preds = %2, %13
  %14 = phi ptr [ %.pre.i.i, %13 ], [ %6, %2 ]
  %15 = getelementptr inbounds nuw i8, ptr %0, i64 8
  %16 = getelementptr inbounds i8, ptr %14, i64 %10
  %17 = load i32, ptr %15, align 8
  store i32 %17, ptr %16, align 1
  ret void
}